target datalayout = "e-m:e-p270:32:32-p271:32:32-p272:64:64-i64:64-i128:128-f80:128-n8:16:32:64-S128"
target triple = "x86_64-pc-linux-gnu"

%struct.lxb_html_tokenizer = type { ptr, ptr, ptr, ptr, ptr, ptr, ptr, ptr, ptr, ptr, ptr, ptr, ptr, ptr, ptr, i64, ptr, ptr, ptr, ptr, ptr, i64, i64, ptr, ptr, i64, i64, i32, i32, i8, i32, i32, i8, ptr, i64 }
%struct.lxb_html_token_t = type { ptr, ptr, i64, i64, ptr, ptr, ptr, ptr, ptr, i64, i64, i32 }

; Function Attrs: nounwind uwtable
define internal void @lxb_html_token_clean(ptr noundef %0) #0 {
  %2 = alloca ptr, align 8
  store ptr %0, ptr %2, align 8
  %3 = load ptr, ptr %2, align 8
  call void @llvm.memset.p0.i64(ptr align 8 %3, i8 0, i64 96, i1 false)
  ret void
}

; Function Attrs: nounwind uwtable
define internal ptr @lxb_html_tokenizer_state_doctype_bogus(ptr noundef %0, ptr noundef %1, ptr noundef %2) #0 {
  %4 = alloca ptr, align 8
  %5 = alloca ptr, align 8
  %6 = alloca ptr, align 8
  %7 = alloca ptr, align 8
  store ptr %0, ptr %5, align 8
  store ptr %1, ptr %6, align 8
  store ptr %2, ptr %7, align 8
  br label %8

8:                                                ; preds = %137, %3
  %9 = load ptr, ptr %6, align 8
  %10 = load ptr, ptr %7, align 8
  %11 = icmp ne ptr %9, %10
  br i1 %11, label %12, label %140

12:                                               ; preds = %8
  %13 = load ptr, ptr %6, align 8
  %14 = load i8, ptr %13, align 1
  %15 = zext i8 %14 to i32
  switch i32 %15, label %136 [
    i32 62, label %16
    i32 0, label %72
  ]

16:                                               ; preds = %12
  %17 = load ptr, ptr %5, align 8
  %18 = getelementptr inbounds %struct.lxb_html_tokenizer, ptr %17, i32 0, i32 0
  store ptr @lxb_html_tokenizer_state_data_before, ptr %18, align 8
  br label %19

19:                                               ; preds = %16
  %20 = load ptr, ptr %5, align 8
  %21 = getelementptr inbounds %struct.lxb_html_tokenizer, ptr %20, i32 0, i32 8
  %22 = load ptr, ptr %21, align 8
  %23 = getelementptr inbounds %struct.lxb_html_token_t, ptr %22, i32 0, i32 0
  %24 = load ptr, ptr %23, align 8
  %25 = load ptr, ptr %5, align 8
  %26 = getelementptr inbounds %struct.lxb_html_tokenizer, ptr %25, i32 0, i32 8
  %27 = load ptr, ptr %26, align 8
  %28 = getelementptr inbounds %struct.lxb_html_token_t, ptr %27, i32 0, i32 1
  %29 = load ptr, ptr %28, align 8
  %30 = icmp ne ptr %24, %29
  br i1 %30, label %31, label %60

31:                                               ; preds = %19
  %32 = load ptr, ptr %5, align 8
  %33 = getelementptr inbounds %struct.lxb_html_tokenizer, ptr %32, i32 0, i32 2
  %34 = load ptr, ptr %33, align 8
  %35 = load ptr, ptr %5, align 8
  %36 = load ptr, ptr %5, align 8
  %37 = getelementptr inbounds %struct.lxb_html_tokenizer, ptr %36, i32 0, i32 8
  %38 = load ptr, ptr %37, align 8
  %39 = load ptr, ptr %5, align 8
  %40 = getelementptr inbounds %struct.lxb_html_tokenizer, ptr %39, i32 0, i32 3
  %41 = load ptr, ptr %40, align 8
  %42 = call ptr %34(ptr noundef %35, ptr noundef %38, ptr noundef %41)
  %43 = load ptr, ptr %5, align 8
  %44 = getelementptr inbounds %struct.lxb_html_tokenizer, ptr %43, i32 0, i32 8
  store ptr %42, ptr %44, align 8
  %45 = load ptr, ptr %5, align 8
  %46 = getelementptr inbounds %struct.lxb_html_tokenizer, ptr %45, i32 0, i32 8
  %47 = load ptr, ptr %46, align 8
  %48 = icmp eq ptr %47, null
  br i1 %48, label %49, label %59

49:                                               ; preds = %31
  %50 = load ptr, ptr %5, align 8
  %51 = getelementptr inbounds %struct.lxb_html_tokenizer, ptr %50, i32 0, i32 31
  %52 = load i32, ptr %51, align 8
  %53 = icmp eq i32 %52, 0
  br i1 %53, label %54, label %57

54:                                               ; preds = %49
  %55 = load ptr, ptr %5, align 8
  %56 = getelementptr inbounds %struct.lxb_html_tokenizer, ptr %55, i32 0, i32 31
  store i32 1, ptr %56, align 8
  br label %57

57:                                               ; preds = %54, %49
  %58 = load ptr, ptr %7, align 8
  store ptr %58, ptr %4, align 8
  br label %142

59:                                               ; preds = %31
  br label %60

60:                                               ; preds = %59, %19
  %61 = load ptr, ptr %5, align 8
  %62 = getelementptr inbounds %struct.lxb_html_tokenizer, ptr %61, i32 0, i32 8
  %63 = load ptr, ptr %62, align 8
  call void @lxb_html_token_clean(ptr noundef %63)
  %64 = load ptr, ptr %5, align 8
  %65 = getelementptr inbounds %struct.lxb_html_tokenizer, ptr %64, i32 0, i32 16
  %66 = load ptr, ptr %65, align 8
  %67 = load ptr, ptr %5, align 8
  %68 = getelementptr inbounds %struct.lxb_html_tokenizer, ptr %67, i32 0, i32 17
  store ptr %66, ptr %68, align 8
  br label %69

69:                                               ; preds = %60
  %70 = load ptr, ptr %6, align 8
  %71 = getelementptr inbounds i8, ptr %70, i64 1
  store ptr %71, ptr %4, align 8
  br label %142

72:                                               ; preds = %12
  %73 = load ptr, ptr %5, align 8
  %74 = getelementptr inbounds %struct.lxb_html_tokenizer, ptr %73, i32 0, i32 32
  %75 = load i8, ptr %74, align 4
  %76 = trunc i8 %75 to i1
  br i1 %76, label %77, label %130

77:                                               ; preds = %72
  br label %78

78:                                               ; preds = %77
  %79 = load ptr, ptr %5, align 8
  %80 = getelementptr inbounds %struct.lxb_html_tokenizer, ptr %79, i32 0, i32 8
  %81 = load ptr, ptr %80, align 8
  %82 = getelementptr inbounds %struct.lxb_html_token_t, ptr %81, i32 0, i32 0
  %83 = load ptr, ptr %82, align 8
  %84 = load ptr, ptr %5, align 8
  %85 = getelementptr inbounds %struct.lxb_html_tokenizer, ptr %84, i32 0, i32 8
  %86 = load ptr, ptr %85, align 8
  %87 = getelementptr inbounds %struct.lxb_html_token_t, ptr %86, i32 0, i32 1
  %88 = load ptr, ptr %87, align 8
  %89 = icmp ne ptr %83, %88
  br i1 %89, label %90, label %119

90:                                               ; preds = %78
  %91 = load ptr, ptr %5, align 8
  %92 = getelementptr inbounds %struct.lxb_html_tokenizer, ptr %91, i32 0, i32 2
  %93 = load ptr, ptr %92, align 8
  %94 = load ptr, ptr %5, align 8
  %95 = load ptr, ptr %5, align 8
  %96 = getelementptr inbounds %struct.lxb_html_tokenizer, ptr %95, i32 0, i32 8
  %97 = load ptr, ptr %96, align 8
  %98 = load ptr, ptr %5, align 8
  %99 = getelementptr inbounds %struct.lxb_html_tokenizer, ptr %98, i32 0, i32 3
  %100 = load ptr, ptr %99, align 8
  %101 = call ptr %93(ptr noundef %94, ptr noundef %97, ptr noundef %100)
  %102 = load ptr, ptr %5, align 8
  %103 = getelementptr inbounds %struct.lxb_html_tokenizer, ptr %102, i32 0, i32 8
  store ptr %101, ptr %103, align 8
  %104 = load ptr, ptr %5, align 8
  %105 = getelementptr inbounds %struct.lxb_html_tokenizer, ptr %104, i32 0, i32 8
  %106 = load ptr, ptr %105, align 8
  %107 = icmp eq ptr %106, null
  br i1 %107, label %108, label %118

108:                                              ; preds = %90
  %109 = load ptr, ptr %5, align 8
  %110 = getelementptr inbounds %struct.lxb_html_tokenizer, ptr %109, i32 0, i32 31
  %111 = load i32, ptr %110, align 8
  %112 = icmp eq i32 %111, 0
  br i1 %112, label %113, label %116

113:                                              ; preds = %108
  %114 = load ptr, ptr %5, align 8
  %115 = getelementptr inbounds %struct.lxb_html_tokenizer, ptr %114, i32 0, i32 31
  store i32 1, ptr %115, align 8
  br label %116

116:                                              ; preds = %113, %108
  %117 = load ptr, ptr %7, align 8
  store ptr %117, ptr %4, align 8
  br label %142

118:                                              ; preds = %90
  br label %119

119:                                              ; preds = %118, %78
  %120 = load ptr, ptr %5, align 8
  %121 = getelementptr inbounds %struct.lxb_html_tokenizer, ptr %120, i32 0, i32 8
  %122 = load ptr, ptr %121, align 8
  call void @lxb_html_token_clean(ptr noundef %122)
  %123 = load ptr, ptr %5, align 8
  %124 = getelementptr inbounds %struct.lxb_html_tokenizer, ptr %123, i32 0, i32 16
  %125 = load ptr, ptr %124, align 8
  %126 = load ptr, ptr %5, align 8
  %127 = getelementptr inbounds %struct.lxb_html_tokenizer, ptr %126, i32 0, i32 17
  store ptr %125, ptr %127, align 8
  br label %128

128:                                              ; preds = %119
  %129 = load ptr, ptr %7, align 8
  store ptr %129, ptr %4, align 8
  br label %142

130:                                              ; preds = %72
  %131 = load ptr, ptr %5, align 8
  %132 = getelementptr inbounds %struct.lxb_html_tokenizer, ptr %131, i32 0, i32 11
  %133 = load ptr, ptr %132, align 8
  %134 = load ptr, ptr %6, align 8
  %135 = call ptr @lxb_html_tokenizer_error_add(ptr noundef %133, ptr noundef %134, i32 noundef 45)
  br label %137

136:                                              ; preds = %12
  br label %137

137:                                              ; preds = %136, %130
  %138 = load ptr, ptr %6, align 8
  %139 = getelementptr inbounds i8, ptr %138, i32 1
  store ptr %139, ptr %6, align 8
  br label %8

140:                                              ; preds = %8
  %141 = load ptr, ptr %6, align 8
  store ptr %141, ptr %4, align 8
  br label %142

142:                                              ; preds = %140, %128, %116, %69, %57
  %143 = load ptr, ptr %4, align 8
  ret ptr %143
}