; Function Attrs: nounwind uwtable
define internal ptr @lxb_html_tokenizer_state_doctype_bogus(ptr noundef %0, ptr noundef %1, ptr noundef readnone %2) #0 {
  %.not47 = icmp eq ptr %1, %2
  br i1 %.not47, label %.loopexit, label %.lr.ph

.lr.ph:                                           ; preds = %3
  %4 = getelementptr inbounds i8, ptr %0, i64 236
  %5 = getelementptr inbounds i8, ptr %0, i64 88
  br label %6

6:                                                ; preds = %.lr.ph, %61
  %.04048 = phi ptr [ %1, %.lr.ph ], [ %62, %61 ]
  %7 = load i8, ptr %.04048, align 1
  switch i8 %7, label %61 [
    i8 62, label %8
    i8 0, label %32
  ]

8:                                                ; preds = %6
  store ptr @lxb_html_tokenizer_state_data_before, ptr %0, align 8
  %9 = getelementptr inbounds i8, ptr %0, i64 64
  %10 = load ptr, ptr %9, align 8
  %11 = load ptr, ptr %10, align 8
  %12 = getelementptr inbounds i8, ptr %10, i64 8
  %13 = load ptr, ptr %12, align 8
  %.not44 = icmp eq ptr %11, %13
  br i1 %.not44, label %26, label %14

14:                                               ; preds = %8
  %15 = getelementptr inbounds i8, ptr %0, i64 16
  %16 = load ptr, ptr %15, align 8
  %17 = getelementptr inbounds i8, ptr %0, i64 24
  %18 = load ptr, ptr %17, align 8
  %19 = tail call ptr %16(ptr noundef nonnull %0, ptr noundef nonnull %10, ptr noundef %18) #4
  store ptr %19, ptr %9, align 8
  %20 = icmp eq ptr %19, null
  br i1 %20, label %21, label %26

21:                                               ; preds = %14
  %22 = getelementptr inbounds i8, ptr %0, i64 232
  %23 = load i32, ptr %22, align 8
  %24 = icmp eq i32 %23, 0
  br i1 %24, label %25, label %.loopexit

25:                                               ; preds = %21
  store i32 1, ptr %22, align 8
  br label %.loopexit

26:                                               ; preds = %14, %8
  %27 = phi ptr [ %19, %14 ], [ %10, %8 ]
  tail call void @llvm.memset.p0.i64(ptr noundef nonnull align 8 dereferenceable(96) %27, i8 0, i64 96, i1 false)
  %28 = getelementptr inbounds i8, ptr %0, i64 128
  %29 = load ptr, ptr %28, align 8
  %30 = getelementptr inbounds i8, ptr %0, i64 136
  store ptr %29, ptr %30, align 8
  %31 = getelementptr inbounds i8, ptr %.04048, i64 1
  br label %.loopexit

32:                                               ; preds = %6
  %33 = load i8, ptr %4, align 4
  %34 = and i8 %33, 1
  %.not42 = icmp eq i8 %34, 0
  br i1 %.not42, label %58, label %35

35:                                               ; preds = %32
  %36 = getelementptr inbounds i8, ptr %0, i64 64
  %37 = load ptr, ptr %36, align 8
  %38 = load ptr, ptr %37, align 8
  %39 = getelementptr inbounds i8, ptr %37, i64 8
  %40 = load ptr, ptr %39, align 8
  %.not43 = icmp eq ptr %38, %40
  br i1 %.not43, label %53, label %41

41:                                               ; preds = %35
  %42 = getelementptr inbounds i8, ptr %0, i64 16
  %43 = load ptr, ptr %42, align 8
  %44 = getelementptr inbounds i8, ptr %0, i64 24
  %45 = load ptr, ptr %44, align 8
  %46 = tail call ptr %43(ptr noundef nonnull %0, ptr noundef nonnull %37, ptr noundef %45) #4
  store ptr %46, ptr %36, align 8
  %47 = icmp eq ptr %46, null
  br i1 %47, label %48, label %53

48:                                               ; preds = %41
  %49 = getelementptr inbounds i8, ptr %0, i64 232
  %50 = load i32, ptr %49, align 8
  %51 = icmp eq i32 %50, 0
  br i1 %51, label %52, label %.loopexit

52:                                               ; preds = %48
  store i32 1, ptr %49, align 8
  br label %.loopexit

53:                                               ; preds = %41, %35
  %54 = phi ptr [ %46, %41 ], [ %37, %35 ]
  tail call void @llvm.memset.p0.i64(ptr noundef nonnull align 8 dereferenceable(96) %54, i8 0, i64 96, i1 false)
  %55 = getelementptr inbounds i8, ptr %0, i64 128
  %56 = load ptr, ptr %55, align 8
  %57 = getelementptr inbounds i8, ptr %0, i64 136
  store ptr %56, ptr %57, align 8
  br label %.loopexit

58:                                               ; preds = %32
  %59 = load ptr, ptr %5, align 8
  %60 = tail call ptr @lxb_html_tokenizer_error_add(ptr noundef %59, ptr noundef nonnull %.04048, i32 noundef 45) #4
  br label %61

61:                                               ; preds = %6, %58
  %62 = getelementptr inbounds i8, ptr %.04048, i64 1
  %.not = icmp eq ptr %62, %2
  br i1 %.not, label %.loopexit, label %6

.loopexit:                                        ; preds = %61, %3, %48, %52, %21, %25, %53, %26
  %.0 = phi ptr [ %2, %53 ], [ %31, %26 ], [ %2, %25 ], [ %2, %21 ], [ %2, %52 ], [ %2, %48 ], [ %1, %3 ], [ %2, %61 ]
  ret ptr %.0
}